Certificate:
    Data:
        Version: 3 (0x2)
        Serial Number:
            6f:a3:ef:b3:0a:82:99:fe:ef:75:cd:e1:f3:f2:01:a4:4b:cb:d1:7f
        Signature Algorithm: sha256WithRSAEncryption
        Issuer: C = US, ST = Maryland, L = Forest Hill, O = The Apache Software Foundation, OU = Apache Thrift, CN = localhost, emailAddress = dev@thrift.apache.org
        Validity
            Not Before: Jul 15 03:27:11 2020 GMT
            Not After : Oct  1 03:27:11 2028 GMT
        Subject: C = US, ST = Maryland, L = Forest Hill, O = The Apache Software Foundation, OU = Apache Thrift, CN = localhost, emailAddress = dev@thrift.apache.org
        Subject Public Key Info:
            Public Key Algorithm: rsaEncryption
                RSA Public-Key: (2048 bit)
                Modulus:
                    00:a0:12:f5:80:77:af:f7:8b:0c:15:ff:f4:86:c6:
                    24:a7:66:5b:ec:57:41:13:c7:26:83:e5:97:b2:b4:
                    9c:9b:8d:55:6d:1e:a2:2f:fb:f3:89:37:6a:1e:ee:
                    db:d0:cb:0a:54:ac:e1:e2:68:7b:f4:85:d5:c0:a2:
                    29:d2:da:fe:be:71:1c:02:62:2d:d5:5d:9b:b5:18:
                    0a:80:93:70:15:50:a9:4c:54:16:87:33:23:e0:36:
                    05:68:c1:7c:35:24:de:95:d8:03:26:cc:eb:d9:1c:
                    08:9e:15:49:e0:3a:64:72:ea:54:6d:76:ef:17:51:
                    e8:2b:2d:ae:2d:c8:ab:74:af:de:78:05:84:30:5d:
                    31:9d:c8:62:0b:08:11:b1:12:fd:a7:bb:20:21:d7:
                    65:cc:bc:f6:af:ce:ee:56:4c:e0:5e:11:6d:6f:2c:
                    69:ff:4a:67:d4:c0:3e:22:8b:1b:fd:f0:33:01:e2:
                    3c:2b:ee:06:9d:4f:3e:4f:1c:70:cf:30:1e:8b:62:
                    a4:2a:d7:54:70:b1:fb:23:94:9f:1d:5b:d7:a7:9a:
                    d1:5f:03:10:19:56:77:89:b4:33:db:a1:22:b4:a5:
                    72:ea:26:97:84:a9:3a:eb:34:a0:bc:38:81:98:0c:
                    2a:ec:1d:01:0d:b4:fd:34:21:39:56:fb:af:85:c2:
                    67:ad
                Exponent: 65537 (0x10001)
        X509v3 extensions:
            X509v3 Subject Key Identifier: 
                F2:09:C2:CB:84:12:30:5D:08:96:CA:9B:45:E2:C8:82:D7:1C:5C:6B
            X509v3 Authority Key Identifier: 
                keyid:F2:09:C2:CB:84:12:30:5D:08:96:CA:9B:45:E2:C8:82:D7:1C:5C:6B

            X509v3 Basic Constraints: critical
                CA:TRUE
    Signature Algorithm: sha256WithRSAEncryption
         0f:5c:d6:13:89:7d:61:67:47:2b:f7:25:01:95:3b:76:72:99:
         bc:ac:c0:f1:2b:75:45:68:b4:62:82:96:c4:ea:73:97:79:a8:
         7d:63:24:a6:ee:b3:9d:72:08:09:a7:4e:75:ab:7a:4a:97:dc:
         48:88:3a:0c:a5:ef:ac:1b:ca:8a:69:c8:0c:ad:4b:45:81:9e:
         2d:c4:c3:cf:17:04:27:cf:0f:f1:d0:ac:9a:ba:09:da:9e:ba:
         6a:9d:6e:94:ca:b5:97:5e:65:ec:e0:15:5a:26:e6:01:d3:5e:
         2f:a1:75:aa:0d:e0:1b:58:a1:ab:32:2f:f5:c6:93:d7:9d:3b:
         30:ab:e1:d8:b0:42:9e:a7:8c:97:5a:73:26:da:5b:98:87:13:
         01:4f:98:6d:7b:04:b0:6c:5e:18:7b:25:a5:00:3a:7d:86:53:
         c1:0d:1a:3d:a2:39:d9:cc:b8:b6:ad:2d:2e:a7:92:2a:20:60:
         fd:0c:05:d9:37:fa:2a:6f:bc:3b:46:8c:61:f2:a4:f2:c7:96:
         65:a8:7d:49:c8:26:06:86:4a:e4:a1:02:87:38:7d:0b:33:d4:
         8c:d7:df:f5:f6:ee:34:93:8a:c3:ca:66:31:a6:9d:6e:19:e0:
         84:47:45:86:d6:e7:47:a7:66:f2:1f:9e:ef:13:18:90:25:2e:
         9e:95:ce:9a
-----BEGIN CERTIFICATE-----
MIIERTCCAy2gAwIBAgIUb6PvswqCmf7vdc3h8/IBpEvL0X8wDQYJKoZIhvcNAQEL
BQAwgbExCzAJBgNVBAYTAlVTMREwDwYDVQQIDAhNYXJ5bGFuZDEUMBIGA1UEBwwL
Rm9yZXN0IEhpbGwxJzAlBgNVBAoMHlRoZSBBcGFjaGUgU29mdHdhcmUgRm91bmRh
dGlvbjEWMBQGA1UECwwNQXBhY2hlIFRocmlmdDESMBAGA1UEAwwJbG9jYWxob3N0
MSQwIgYJKoZIhvcNAQkBFhVkZXZAdGhyaWZ0LmFwYWNoZS5vcmcwHhcNMjAwNzE1
MDMyNzExWhcNMjgxMDAxMDMyNzExWjCBsTELMAkGA1UEBhMCVVMxETAPBgNVBAgM
CE1hcnlsYW5kMRQwEgYDVQQHDAtGb3Jlc3QgSGlsbDEnMCUGA1UECgweVGhlIEFw
YWNoZSBTb2Z0d2FyZSBGb3VuZGF0aW9uMRYwFAYDVQQLDA1BcGFjaGUgVGhyaWZ0
MRIwEAYDVQQDDAlsb2NhbGhvc3QxJDAiBgkqhkiG9w0BCQEWFWRldkB0aHJpZnQu
YXBhY2hlLm9yZzCCASIwDQYJKoZIhvcNAQEBBQADggEPADCCAQoCggEBAKAS9YB3
r/eLDBX/9IbGJKdmW+xXQRPHJoPll7K0nJuNVW0eoi/784k3ah7u29DLClSs4eJo
e/SF1cCiKdLa/r5xHAJiLdVdm7UYCoCTcBVQqUxUFoczI+A2BWjBfDUk3pXYAybM
69kcCJ4VSeA6ZHLqVG127xdR6Cstri3Iq3Sv3ngFhDBdMZ3IYgsIEbES/ae7ICHX
Zcy89q/O7lZM4F4RbW8saf9KZ9TAPiKLG/3wMwHiPCvuBp1PPk8ccM8wHotipCrX
VHCx+yOUnx1b16ea0V8DEBlWd4m0M9uhIrSlcuoml4SpOus0oLw4gZgMKuwdAQ20
/TQhOVb7r4XCZ60CAwEAAaNTMFEwHQYDVR0OBBYEFPIJwsuEEjBdCJbKm0XiyILX
HFxrMB8GA1UdIwQYMBaAFPIJwsuEEjBdCJbKm0XiyILXHFxrMA8GA1UdEwEB/wQF
MAMBAf8wDQYJKoZIhvcNAQELBQADggEBAA9c1hOJfWFnRyv3JQGVO3ZymbyswPEr
dUVotGKClsTqc5d5qH1jJKbus51yCAmnTnWrekqX3EiIOgyl76wbyoppyAytS0WB
ni3Ew88XBCfPD/HQrJq6CdqeumqdbpTKtZdeZezgFVom5gHTXi+hdaoN4BtYoasy
L/XGk9edOzCr4diwQp6njJdacybaW5iHEwFPmG17BLBsXhh7JaUAOn2GU8ENGj2i
OdnMuLatLS6nkiogYP0MBdk3+ipvvDtGjGHypPLHlmWofUnIJgaGSuShAoc4fQsz
1IzX3/X27jSTisPKZjGmnW4Z4IRHRYbW50enZvIfnu8TGJAlLp6Vzpo=
-----END CERTIFICATE-----
